target datalayout = "e-m:e-p270:32:32-p271:32:32-p272:64:64-i64:64-i128:128-f80:128-n8:16:32:64-S128"
target triple = "x86_64-pc-linux-gnu"

; Function Attrs: mustprogress uwtable
define internal noundef zeroext i1 @_ZZN32pxrInternal_v0_24__pxrReserved__29TfFindLongestAccessiblePrefixERKNSt7__cxx1112basic_stringIcSt11char_traitsIcESaIcEEEPS5_EN6_Local7CompareES7_mmS8_(ptr noundef nonnull align 8 dereferenceable(32) %0, i64 noundef %1, i64 noundef %2, ptr noundef %3) #0 align 2 {
  %5 = alloca i1, align 1
  %6 = alloca ptr, align 8
  %7 = alloca i64, align 8
  %8 = alloca i64, align 8
  %9 = alloca ptr, align 8
  store ptr %0, ptr %6, align 8
  store i64 %1, ptr %7, align 8
  store i64 %2, ptr %8, align 8
  store ptr %3, ptr %9, align 8
  %10 = load i64, ptr %7, align 8
  %11 = load i64, ptr %8, align 8
  %12 = icmp eq i64 %10, %11
  br i1 %12, label %13, label %14

13:                                               ; preds = %4
  store i1 false, ptr %5, align 1
  br label %35

14:                                               ; preds = %4
  %15 = load i64, ptr %7, align 8
  %16 = icmp eq i64 %15, -1
  br i1 %16, label %17, label %23

17:                                               ; preds = %14
  %18 = load ptr, ptr %6, align 8
  %19 = load i64, ptr %8, align 8
  %20 = load ptr, ptr %9, align 8
  %21 = call noundef zeroext i1 @_ZZN32pxrInternal_v0_24__pxrReserved__29TfFindLongestAccessiblePrefixERKNSt7__cxx1112basic_stringIcSt11char_traitsIcESaIcEEEPS5_EN6_Local10AccessibleES7_mS8_(ptr noundef nonnull align 8 dereferenceable(32) %18, i64 noundef %19, ptr noundef %20)
  %22 = xor i1 %21, true
  store i1 %22, ptr %5, align 1
  br label %35

23:                                               ; preds = %14
  %24 = load i64, ptr %8, align 8
  %25 = icmp eq i64 %24, -1
  br i1 %25, label %26, label %31

26:                                               ; preds = %23
  %27 = load ptr, ptr %6, align 8
  %28 = load i64, ptr %7, align 8
  %29 = load ptr, ptr %9, align 8
  %30 = call noundef zeroext i1 @_ZZN32pxrInternal_v0_24__pxrReserved__29TfFindLongestAccessiblePrefixERKNSt7__cxx1112basic_stringIcSt11char_traitsIcESaIcEEEPS5_EN6_Local10AccessibleES7_mS8_(ptr noundef nonnull align 8 dereferenceable(32) %27, i64 noundef %28, ptr noundef %29)
  store i1 %30, ptr %5, align 1
  br label %35

31:                                               ; preds = %23
  %32 = load i64, ptr %7, align 8
  %33 = load i64, ptr %8, align 8
  %34 = icmp ult i64 %32, %33
  store i1 %34, ptr %5, align 1
  br label %35

35:                                               ; preds = %31, %26, %17, %13
  %36 = load i1, ptr %5, align 1
  ret i1 %36
}