; Function Attrs: mustprogress uwtable
define internal noundef zeroext i1 @_ZZN32pxrInternal_v0_24__pxrReserved__29TfFindLongestAccessiblePrefixERKNSt7__cxx1112basic_stringIcSt11char_traitsIcESaIcEEEPS5_EN6_Local7CompareES7_mmS8_(ptr noundef nonnull align 8 dereferenceable(32) %0, i64 noundef %1, i64 noundef %2, ptr noundef %3) #0 align 2 {
  %5 = icmp eq i64 %1, %2
  br i1 %5, label %17, label %6

6:                                                ; preds = %4
  %7 = icmp eq i64 %1, -1
  br i1 %7, label %8, label %11

8:                                                ; preds = %6
  %9 = tail call fastcc noundef zeroext i1 @_ZZN32pxrInternal_v0_24__pxrReserved__29TfFindLongestAccessiblePrefixERKNSt7__cxx1112basic_stringIcSt11char_traitsIcESaIcEEEPS5_EN6_Local10AccessibleES7_mS8_(ptr noundef nonnull align 8 dereferenceable(32) %0, i64 noundef %2, ptr noundef %3)
  %10 = xor i1 %9, true
  br label %17

11:                                               ; preds = %6
  %12 = icmp eq i64 %2, -1
  br i1 %12, label %13, label %15

13:                                               ; preds = %11
  %14 = tail call fastcc noundef zeroext i1 @_ZZN32pxrInternal_v0_24__pxrReserved__29TfFindLongestAccessiblePrefixERKNSt7__cxx1112basic_stringIcSt11char_traitsIcESaIcEEEPS5_EN6_Local10AccessibleES7_mS8_(ptr noundef nonnull align 8 dereferenceable(32) %0, i64 noundef %1, ptr noundef %3)
  br label %17

15:                                               ; preds = %11
  %16 = icmp ult i64 %1, %2
  br label %17

17:                                               ; preds = %4, %15, %13, %8
  %.0 = phi i1 [ %10, %8 ], [ %14, %13 ], [ %16, %15 ], [ false, %4 ]
  ret i1 %.0
}